target datalayout = "e-m:e-p270:32:32-p271:32:32-p272:64:64-i64:64-i128:128-f80:128-n8:16:32:64-S128"
target triple = "x86_64-pc-linux-gnu"

%struct.ident_t = type { i32, i32, i32, i32, ptr }
%"class.std::__cxx11::basic_string" = type { %"struct.std::__cxx11::basic_string<char>::_Alloc_hider", i64, %union.anon }
%"struct.std::__cxx11::basic_string<char>::_Alloc_hider" = type { ptr }
%union.anon = type { i64, [8 x i8] }

@.str = private unnamed_addr constant [19 x i8] c"Error: '%s' failed\00", align 1
@.str.2 = private unnamed_addr constant [136 x i8] c"generated/home/dtcxzyw/WorkSpace/Projects/compilers/llvm-opt-benchmark/bench/faiss/faiss/faiss/impl/residual_quantizer_encode_steps.cpp\00", align 1
@_ZTIN5faiss14FaissExceptionE = external constant ptr
@2 = private unnamed_addr constant %struct.ident_t { i32 0, i32 2, i32 0, i32 22, ptr @0 }, align 8
@.str.7 = private unnamed_addr constant [9 x i8] c"ldc >= K\00", align 1

; Function Attrs: mustprogress uwtable
define void @_ZN5faiss27beam_search_encode_step_tabEmmmPKfmPKmS1_mS1_mPKiS1_mPiPf17ApproxTopK_mode_t(i64 noundef %0, i64 noundef %1, i64 noundef %2, ptr noundef %3, i64 noundef %4, ptr noundef %5, ptr noundef %6, i64 noundef %7, ptr noundef %8, i64 noundef %9, ptr noundef %10, ptr noundef %11, i64 noundef %12, ptr noundef %13, ptr noundef %14, i32 noundef %15) #0 personality ptr @__gxx_personality_v0 {
  %17 = alloca i64, align 8
  %18 = alloca i64, align 8
  %19 = alloca i64, align 8
  %20 = alloca ptr, align 8
  %21 = alloca i64, align 8
  %22 = alloca ptr, align 8
  %23 = alloca ptr, align 8
  %24 = alloca i64, align 8
  %25 = alloca ptr, align 8
  %26 = alloca i64, align 8
  %27 = alloca ptr, align 8
  %28 = alloca ptr, align 8
  %29 = alloca i64, align 8
  %30 = alloca ptr, align 8
  %31 = alloca ptr, align 8
  %32 = alloca i32, align 4
  %33 = alloca %"class.std::__cxx11::basic_string", align 8
  %34 = alloca i32, align 4
  %35 = alloca ptr, align 8
  %36 = alloca i32, align 4
  %37 = alloca i32, align 4
  %38 = alloca i32, align 4
  %39 = call i32 @__kmpc_global_thread_num(ptr @2)
  store i64 %0, ptr %17, align 8
  store i64 %1, ptr %18, align 8
  store i64 %2, ptr %19, align 8
  store ptr %3, ptr %20, align 8
  store i64 %4, ptr %21, align 8
  store ptr %5, ptr %22, align 8
  store ptr %6, ptr %23, align 8
  store i64 %7, ptr %24, align 8
  store ptr %8, ptr %25, align 8
  store i64 %9, ptr %26, align 8
  store ptr %10, ptr %27, align 8
  store ptr %11, ptr %28, align 8
  store i64 %12, ptr %29, align 8
  store ptr %13, ptr %30, align 8
  store ptr %14, ptr %31, align 8
  store i32 %15, ptr %32, align 4
  br label %40

40:                                               ; preds = %16
  %41 = load i64, ptr %21, align 8
  %42 = load i64, ptr %17, align 8
  %43 = icmp uge i64 %41, %42
  br i1 %43, label %67, label %44

44:                                               ; preds = %40
  br label %45

45:                                               ; preds = %44
  call void @_ZNSt7__cxx1112basic_stringIcSt11char_traitsIcESaIcEEC1Ev(ptr noundef nonnull align 8 dereferenceable(32) %33) #5
  %46 = call i32 (ptr, i64, ptr, ...) @snprintf(ptr noundef null, i64 noundef 0, ptr noundef @.str, ptr noundef @.str.7) #5
  store i32 %46, ptr %34, align 4
  %47 = load i32, ptr %34, align 4
  %48 = add nsw i32 %47, 1
  %49 = sext i32 %48 to i64
  invoke void @_ZNSt7__cxx1112basic_stringIcSt11char_traitsIcESaIcEE6resizeEm(ptr noundef nonnull align 8 dereferenceable(32) %33, i64 noundef %49)
          to label %50 unwind label %57

50:                                               ; preds = %45
  %51 = invoke noundef nonnull align 1 dereferenceable(1) ptr @_ZNSt7__cxx1112basic_stringIcSt11char_traitsIcESaIcEEixEm(ptr noundef nonnull align 8 dereferenceable(32) %33, i64 noundef 0)
          to label %52 unwind label %57

52:                                               ; preds = %50
  %53 = call noundef i64 @_ZNKSt7__cxx1112basic_stringIcSt11char_traitsIcESaIcEE4sizeEv(ptr noundef nonnull align 8 dereferenceable(32) %33) #5
  %54 = call i32 (ptr, i64, ptr, ...) @snprintf(ptr noundef %51, i64 noundef %53, ptr noundef @.str, ptr noundef @.str.7) #5
  %55 = call ptr @__cxa_allocate_exception(i64 40) #5
  invoke void @_ZN5faiss14FaissExceptionC1ERKNSt7__cxx1112basic_stringIcSt11char_traitsIcESaIcEEEPKcSA_i(ptr noundef nonnull align 8 dereferenceable(40) %55, ptr noundef nonnull align 8 dereferenceable(32) %33, ptr noundef @__PRETTY_FUNCTION__._ZN5faiss27beam_search_encode_step_tabEmmmPKfmPKmS1_mS1_mPKiS1_mPiPf17ApproxTopK_mode_t, ptr noundef @.str.2, i32 noundef 400)
          to label %56 unwind label %61

56:                                               ; preds = %52
  invoke void @__cxa_throw(ptr %55, ptr @_ZTIN5faiss14FaissExceptionE, ptr @_ZN5faiss14FaissExceptionD2Ev) #13
          to label %79 unwind label %57

57:                                               ; preds = %56, %50, %45
  %58 = landingpad { ptr, i32 }
          cleanup
  %59 = extractvalue { ptr, i32 } %58, 0
  store ptr %59, ptr %35, align 8
  %60 = extractvalue { ptr, i32 } %58, 1
  store i32 %60, ptr %36, align 4
  br label %65

61:                                               ; preds = %52
  %62 = landingpad { ptr, i32 }
          cleanup
  %63 = extractvalue { ptr, i32 } %62, 0
  store ptr %63, ptr %35, align 8
  %64 = extractvalue { ptr, i32 } %62, 1
  store i32 %64, ptr %36, align 4
  call void @__cxa_free_exception(ptr %55) #5
  br label %65

65:                                               ; preds = %61, %57
  call void @_ZNSt7__cxx1112basic_stringIcSt11char_traitsIcESaIcEED1Ev(ptr noundef nonnull align 8 dereferenceable(32) %33) #5
  br label %74

66:                                               ; No predecessors!
  br label %67

67:                                               ; preds = %66, %40
  br label %68

68:                                               ; preds = %67
  %69 = load i64, ptr %18, align 8
  %70 = icmp ugt i64 %69, 100
  br i1 %70, label %71, label %72

71:                                               ; preds = %68
  call void (ptr, i32, ptr, ...) @__kmpc_fork_call(ptr @2, i32 16, ptr @_ZN5faiss27beam_search_encode_step_tabEmmmPKfmPKmS1_mS1_mPKiS1_mPiPf17ApproxTopK_mode_t.omp_outlined, ptr %18, ptr %19, ptr %17, ptr %27, ptr %26, ptr %23, ptr %24, ptr %28, ptr %25, ptr %20, ptr %22, ptr %21, ptr %30, ptr %29, ptr %31, ptr %32)
  br label %73

72:                                               ; preds = %68
  call void @__kmpc_serialized_parallel(ptr @2, i32 %39)
  store i32 %39, ptr %37, align 4
  store i32 0, ptr %38, align 4
  call void @_ZN5faiss27beam_search_encode_step_tabEmmmPKfmPKmS1_mS1_mPKiS1_mPiPf17ApproxTopK_mode_t.omp_outlined(ptr %37, ptr %38, ptr %18, ptr %19, ptr %17, ptr %27, ptr %26, ptr %23, ptr %24, ptr %28, ptr %25, ptr %20, ptr %22, ptr %21, ptr %30, ptr %29, ptr %31, ptr %32) #5
  call void @__kmpc_end_serialized_parallel(ptr @2, i32 %39)
  br label %73

73:                                               ; preds = %72, %71
  ret void

74:                                               ; preds = %65
  %75 = load ptr, ptr %35, align 8
  %76 = load i32, ptr %36, align 4
  %77 = insertvalue { ptr, i32 } poison, ptr %75, 0
  %78 = insertvalue { ptr, i32 } %77, i32 %76, 1
  resume { ptr, i32 } %78

79:                                               ; preds = %56
  unreachable
}