; Function Attrs: mustprogress uwtable
define void @_ZN5faiss27beam_search_encode_step_tabEmmmPKfmPKmS1_mS1_mPKiS1_mPiPf17ApproxTopK_mode_t(i64 noundef %0, i64 noundef %1, i64 noundef %2, ptr noundef %3, i64 noundef %4, ptr noundef %5, ptr noundef %6, i64 noundef %7, ptr noundef %8, i64 noundef %9, ptr noundef %10, ptr noundef %11, i64 noundef %12, ptr noundef %13, ptr noundef %14, i32 noundef %15) local_unnamed_addr #0 personality ptr @__gxx_personality_v0 {
  %17 = alloca i64, align 8
  %18 = alloca i64, align 8
  %19 = alloca i64, align 8
  %20 = alloca ptr, align 8
  %21 = alloca i64, align 8
  %22 = alloca ptr, align 8
  %23 = alloca ptr, align 8
  %24 = alloca i64, align 8
  %25 = alloca ptr, align 8
  %26 = alloca i64, align 8
  %27 = alloca ptr, align 8
  %28 = alloca ptr, align 8
  %29 = alloca i64, align 8
  %30 = alloca ptr, align 8
  %31 = alloca ptr, align 8
  %32 = alloca i32, align 4
  %33 = alloca %"class.std::__cxx11::basic_string", align 8
  %34 = alloca i32, align 4
  %35 = tail call i32 @__kmpc_global_thread_num(ptr nonnull @2)
  store i64 %0, ptr %17, align 8
  store i64 %1, ptr %18, align 8
  store i64 %2, ptr %19, align 8
  store ptr %3, ptr %20, align 8
  store i64 %4, ptr %21, align 8
  store ptr %5, ptr %22, align 8
  store ptr %6, ptr %23, align 8
  store i64 %7, ptr %24, align 8
  store ptr %8, ptr %25, align 8
  store i64 %9, ptr %26, align 8
  store ptr %10, ptr %27, align 8
  store ptr %11, ptr %28, align 8
  store i64 %12, ptr %29, align 8
  store ptr %13, ptr %30, align 8
  store ptr %14, ptr %31, align 8
  store i32 %15, ptr %32, align 4
  %.not = icmp ult i64 %4, %0
  br i1 %.not, label %36, label %52

36:                                               ; preds = %16
  call void @_ZNSt7__cxx1112basic_stringIcSt11char_traitsIcESaIcEEC1Ev(ptr noundef nonnull align 8 dereferenceable(32) %33) #6
  %37 = call i32 (ptr, i64, ptr, ...) @snprintf(ptr noundef null, i64 noundef 0, ptr noundef nonnull @.str, ptr noundef nonnull @.str.7) #6
  %38 = add nsw i32 %37, 1
  %39 = sext i32 %38 to i64
  invoke void @_ZNSt7__cxx1112basic_stringIcSt11char_traitsIcESaIcEE6resizeEm(ptr noundef nonnull align 8 dereferenceable(32) %33, i64 noundef %39)
          to label %40 unwind label %47

40:                                               ; preds = %36
  %41 = invoke noundef nonnull align 1 dereferenceable(1) ptr @_ZNSt7__cxx1112basic_stringIcSt11char_traitsIcESaIcEEixEm(ptr noundef nonnull align 8 dereferenceable(32) %33, i64 noundef 0)
          to label %42 unwind label %47

42:                                               ; preds = %40
  %43 = call noundef i64 @_ZNKSt7__cxx1112basic_stringIcSt11char_traitsIcESaIcEE4sizeEv(ptr noundef nonnull align 8 dereferenceable(32) %33) #6
  %44 = call i32 (ptr, i64, ptr, ...) @snprintf(ptr noundef nonnull %41, i64 noundef %43, ptr noundef nonnull @.str, ptr noundef nonnull @.str.7) #6
  %45 = call ptr @__cxa_allocate_exception(i64 40) #6
  invoke void @_ZN5faiss14FaissExceptionC1ERKNSt7__cxx1112basic_stringIcSt11char_traitsIcESaIcEEEPKcSA_i(ptr noundef nonnull align 8 dereferenceable(40) %45, ptr noundef nonnull align 8 dereferenceable(32) %33, ptr noundef nonnull @__PRETTY_FUNCTION__._ZN5faiss27beam_search_encode_step_tabEmmmPKfmPKmS1_mS1_mPKiS1_mPiPf17ApproxTopK_mode_t, ptr noundef nonnull @.str.2, i32 noundef 400)
          to label %46 unwind label %49

46:                                               ; preds = %42
  invoke void @__cxa_throw(ptr nonnull %45, ptr nonnull @_ZTIN5faiss14FaissExceptionE, ptr nonnull @_ZN5faiss14FaissExceptionD2Ev) #18
          to label %57 unwind label %47

47:                                               ; preds = %46, %40, %36
  %48 = landingpad { ptr, i32 }
          cleanup
  br label %51

49:                                               ; preds = %42
  %50 = landingpad { ptr, i32 }
          cleanup
  call void @__cxa_free_exception(ptr %45) #6
  br label %51

51:                                               ; preds = %49, %47
  %.pn = phi { ptr, i32 } [ %48, %47 ], [ %50, %49 ]
  call void @_ZNSt7__cxx1112basic_stringIcSt11char_traitsIcESaIcEED1Ev(ptr noundef nonnull align 8 dereferenceable(32) %33) #6
  resume { ptr, i32 } %.pn

52:                                               ; preds = %16
  %53 = icmp ugt i64 %1, 100
  br i1 %53, label %54, label %55

54:                                               ; preds = %52
  call void (ptr, i32, ptr, ...) @__kmpc_fork_call(ptr nonnull @2, i32 16, ptr nonnull @_ZN5faiss27beam_search_encode_step_tabEmmmPKfmPKmS1_mS1_mPKiS1_mPiPf17ApproxTopK_mode_t.omp_outlined, ptr nonnull %18, ptr nonnull %19, ptr nonnull %17, ptr nonnull %27, ptr nonnull %26, ptr nonnull %23, ptr nonnull %24, ptr nonnull %28, ptr nonnull %25, ptr nonnull %20, ptr nonnull %22, ptr nonnull %21, ptr nonnull %30, ptr nonnull %29, ptr nonnull %31, ptr nonnull %32)
  br label %56

55:                                               ; preds = %52
  tail call void @__kmpc_serialized_parallel(ptr nonnull @2, i32 %35)
  store i32 %35, ptr %34, align 4
  call void @_ZN5faiss27beam_search_encode_step_tabEmmmPKfmPKmS1_mS1_mPKiS1_mPiPf17ApproxTopK_mode_t.omp_outlined(ptr nonnull %34, ptr nonnull poison, ptr %18, ptr %19, ptr %17, ptr %27, ptr %26, ptr %23, ptr %24, ptr %28, ptr %25, ptr %20, ptr %22, ptr %21, ptr %30, ptr %29, ptr %31, ptr %32) #6
  tail call void @__kmpc_end_serialized_parallel(ptr nonnull @2, i32 %35)
  br label %56

56:                                               ; preds = %55, %54
  ret void

57:                                               ; preds = %46
  unreachable
}